target datalayout = "e-m:e-p270:32:32-p271:32:32-p272:64:64-i64:64-i128:128-f80:128-n8:16:32:64-S128"
target triple = "x86_64-pc-linux-gnu"

%struct.anon = type { i8 }
%class.anon = type { i8 }

@_ZL6hb_min = internal constant %struct.anon zeroinitializer, align 1

; Function Attrs: inlinehint mustprogress nounwind uwtable
define internal noundef i64 @"_ZZ12hb_parse_intPPKcS0_PibENK3$_0clES0_PPc"(ptr noundef nonnull align 1 dereferenceable(1) %0, ptr noundef %1, ptr noundef %2) #2 align 2 {
  %4 = alloca ptr, align 8
  %5 = alloca ptr, align 8
  %6 = alloca ptr, align 8
  store ptr %0, ptr %4, align 8, !tbaa !32
  store ptr %1, ptr %5, align 8, !tbaa !10
  store ptr %2, ptr %6, align 8, !tbaa !4
  %7 = load ptr, ptr %5, align 8, !tbaa !10
  %8 = load ptr, ptr %6, align 8, !tbaa !4
  %9 = call i64 @strtol(ptr noundef %7, ptr noundef %8, i32 noundef 10) #7
  ret i64 %9
}

; Function Attrs: mustprogress nounwind uwtable
define internal noundef nonnull align 4 dereferenceable(4) ptr @"_ZNK3$_2clIjjEEDTqulefp_fp0_fp_fp0_EOT_OT0_"(ptr noundef nonnull align 1 dereferenceable(1) %0, ptr noundef nonnull align 4 dereferenceable(4) %1, ptr noundef nonnull align 4 dereferenceable(4) %2) #0 align 2 {
  %4 = alloca ptr, align 8
  %5 = alloca ptr, align 8
  %6 = alloca ptr, align 8
  store ptr %0, ptr %4, align 8, !tbaa !32
  store ptr %1, ptr %5, align 8, !tbaa !12
  store ptr %2, ptr %6, align 8, !tbaa !12
  %7 = load ptr, ptr %5, align 8, !tbaa !12
  %8 = load i32, ptr %7, align 4, !tbaa !18
  %9 = load ptr, ptr %6, align 8, !tbaa !12
  %10 = load i32, ptr %9, align 4, !tbaa !18
  %11 = icmp ule i32 %8, %10
  br i1 %11, label %12, label %14

12:                                               ; preds = %3
  %13 = load ptr, ptr %5, align 8, !tbaa !12
  br label %16

14:                                               ; preds = %3
  %15 = load ptr, ptr %6, align 8, !tbaa !12
  br label %16

16:                                               ; preds = %14, %12
  %17 = phi ptr [ %13, %12 ], [ %15, %14 ]
  ret ptr %17
}

; Function Attrs: inlinehint mustprogress nounwind uwtable
define internal noundef i32 @_ZL12ARRAY_LENGTHIcLj32EEjRAT0__KT_(ptr noundef nonnull align 1 dereferenceable(32) %0) #2 {
  %2 = alloca ptr, align 8
  store ptr %0, ptr %2, align 8, !tbaa !10
  ret i32 32
}

; Function Attrs: mustprogress nounwind uwtable
define internal noundef zeroext i1 @"_ZL13_parse_numberIiZ12hb_parse_intPPKcS1_PibE3$_0EbS2_S1_PT_bT0_"(ptr noundef %0, ptr noundef %1, ptr noundef %2, i1 noundef zeroext %3) #0 {
  %5 = alloca i1, align 1
  %6 = alloca %class.anon, align 1
  %7 = alloca ptr, align 8
  %8 = alloca ptr, align 8
  %9 = alloca ptr, align 8
  %10 = alloca i8, align 1
  %11 = alloca [32 x i8], align 16
  %12 = alloca i32, align 4
  %13 = alloca i32, align 4
  %14 = alloca i32, align 4
  %15 = alloca ptr, align 8
  %16 = alloca ptr, align 8
  %17 = alloca i32, align 4
  store ptr %0, ptr %7, align 8, !tbaa !4
  store ptr %1, ptr %8, align 8, !tbaa !10
  store ptr %2, ptr %9, align 8, !tbaa !12
  %18 = zext i1 %3 to i8
  store i8 %18, ptr %10, align 1, !tbaa !14
  call void @llvm.lifetime.start.p0(i64 32, ptr %11) #7
  call void @llvm.lifetime.start.p0(i64 4, ptr %12) #7
  call void @llvm.lifetime.start.p0(i64 4, ptr %13) #7
  %19 = call noundef i32 @_ZL12ARRAY_LENGTHIcLj32EEjRAT0__KT_(ptr noundef nonnull align 1 dereferenceable(32) %11)
  %20 = sub i32 %19, 1
  store i32 %20, ptr %13, align 4, !tbaa !18
  call void @llvm.lifetime.start.p0(i64 4, ptr %14) #7
  %21 = load ptr, ptr %8, align 8, !tbaa !10
  %22 = load ptr, ptr %7, align 8, !tbaa !4
  %23 = load ptr, ptr %22, align 8, !tbaa !10
  %24 = ptrtoint ptr %21 to i64
  %25 = ptrtoint ptr %23 to i64
  %26 = sub i64 %24, %25
  %27 = trunc i64 %26 to i32
  store i32 %27, ptr %14, align 4, !tbaa !18
  %28 = call noundef nonnull align 4 dereferenceable(4) ptr @"_ZNK3$_2clIjjEEDTqulefp_fp0_fp_fp0_EOT_OT0_"(ptr noundef nonnull align 1 dereferenceable(1) @_ZL6hb_min, ptr noundef nonnull align 4 dereferenceable(4) %13, ptr noundef nonnull align 4 dereferenceable(4) %14)
  %29 = load i32, ptr %28, align 4, !tbaa !18
  call void @llvm.lifetime.end.p0(i64 4, ptr %14) #7
  call void @llvm.lifetime.end.p0(i64 4, ptr %13) #7
  store i32 %29, ptr %12, align 4, !tbaa !18
  %30 = getelementptr inbounds [32 x i8], ptr %11, i64 0, i64 0
  %31 = load ptr, ptr %7, align 8, !tbaa !4
  %32 = load ptr, ptr %31, align 8, !tbaa !10
  %33 = load i32, ptr %12, align 4, !tbaa !18
  %34 = zext i32 %33 to i64
  %35 = call ptr @strncpy(ptr noundef %30, ptr noundef %32, i64 noundef %34) #7
  %36 = load i32, ptr %12, align 4, !tbaa !18
  %37 = zext i32 %36 to i64
  %38 = getelementptr inbounds nuw [32 x i8], ptr %11, i64 0, i64 %37
  store i8 0, ptr %38, align 1, !tbaa !20
  call void @llvm.lifetime.start.p0(i64 8, ptr %15) #7
  %39 = getelementptr inbounds [32 x i8], ptr %11, i64 0, i64 0
  store ptr %39, ptr %15, align 8, !tbaa !10
  call void @llvm.lifetime.start.p0(i64 8, ptr %16) #7
  %40 = load ptr, ptr %15, align 8, !tbaa !10
  store ptr %40, ptr %16, align 8, !tbaa !10
  %41 = call ptr @__errno_location() #8
  store i32 0, ptr %41, align 4, !tbaa !18
  %42 = load ptr, ptr %15, align 8, !tbaa !10
  %43 = call noundef i64 @"_ZZ12hb_parse_intPPKcS0_PibENK3$_0clES0_PPc"(ptr noundef nonnull align 1 dereferenceable(1) %6, ptr noundef %42, ptr noundef %16)
  %44 = trunc i64 %43 to i32
  %45 = load ptr, ptr %9, align 8, !tbaa !12
  store i32 %44, ptr %45, align 4, !tbaa !18
  %46 = call ptr @__errno_location() #8
  %47 = load i32, ptr %46, align 4, !tbaa !18
  %48 = icmp ne i32 %47, 0
  br i1 %48, label %71, label %49

49:                                               ; preds = %4
  %50 = load ptr, ptr %15, align 8, !tbaa !10
  %51 = load ptr, ptr %16, align 8, !tbaa !10
  %52 = icmp eq ptr %50, %51
  br i1 %52, label %71, label %53

53:                                               ; preds = %49
  %54 = load i8, ptr %10, align 1, !tbaa !14, !range !16, !noundef !17
  %55 = trunc i8 %54 to i1
  br i1 %55, label %56, label %69

56:                                               ; preds = %53
  %57 = load ptr, ptr %16, align 8, !tbaa !10
  %58 = load ptr, ptr %15, align 8, !tbaa !10
  %59 = ptrtoint ptr %57 to i64
  %60 = ptrtoint ptr %58 to i64
  %61 = sub i64 %59, %60
  %62 = load ptr, ptr %8, align 8, !tbaa !10
  %63 = load ptr, ptr %7, align 8, !tbaa !4
  %64 = load ptr, ptr %63, align 8, !tbaa !10
  %65 = ptrtoint ptr %62 to i64
  %66 = ptrtoint ptr %64 to i64
  %67 = sub i64 %65, %66
  %68 = icmp ne i64 %61, %67
  br label %69

69:                                               ; preds = %56, %53
  %70 = phi i1 [ false, %53 ], [ %68, %56 ]
  br label %71

71:                                               ; preds = %69, %49, %4
  %72 = phi i1 [ true, %49 ], [ true, %4 ], [ %70, %69 ]
  %73 = zext i1 %72 to i64
  %74 = call i64 @llvm.expect.i64(i64 %73, i64 0)
  %75 = icmp ne i64 %74, 0
  br i1 %75, label %76, label %77

76:                                               ; preds = %71
  store i1 false, ptr %5, align 1
  store i32 1, ptr %17, align 4
  br label %86

77:                                               ; preds = %71
  %78 = load ptr, ptr %16, align 8, !tbaa !10
  %79 = load ptr, ptr %15, align 8, !tbaa !10
  %80 = ptrtoint ptr %78 to i64
  %81 = ptrtoint ptr %79 to i64
  %82 = sub i64 %80, %81
  %83 = load ptr, ptr %7, align 8, !tbaa !4
  %84 = load ptr, ptr %83, align 8, !tbaa !10
  %85 = getelementptr inbounds i8, ptr %84, i64 %82
  store ptr %85, ptr %83, align 8, !tbaa !10
  store i1 true, ptr %5, align 1
  store i32 1, ptr %17, align 4
  br label %86

86:                                               ; preds = %77, %76
  call void @llvm.lifetime.end.p0(i64 8, ptr %16) #7
  call void @llvm.lifetime.end.p0(i64 8, ptr %15) #7
  call void @llvm.lifetime.end.p0(i64 4, ptr %12) #7
  call void @llvm.lifetime.end.p0(i64 32, ptr %11) #7
  %87 = load i1, ptr %5, align 1
  ret i1 %87
}

; Function Attrs: mustprogress nounwind uwtable
define hidden noundef zeroext i1 @_Z12hb_parse_intPPKcS0_Pib(ptr noundef %0, ptr noundef %1, ptr noundef %2, i1 noundef zeroext %3) #0 {
  %5 = alloca ptr, align 8
  %6 = alloca ptr, align 8
  %7 = alloca ptr, align 8
  %8 = alloca i8, align 1
  store ptr %0, ptr %5, align 8, !tbaa !4
  store ptr %1, ptr %6, align 8, !tbaa !10
  store ptr %2, ptr %7, align 8, !tbaa !12
  %9 = zext i1 %3 to i8
  store i8 %9, ptr %8, align 1, !tbaa !14
  %10 = load ptr, ptr %5, align 8, !tbaa !4
  %11 = load ptr, ptr %6, align 8, !tbaa !10
  %12 = load ptr, ptr %7, align 8, !tbaa !12
  %13 = load i8, ptr %8, align 1, !tbaa !14, !range !16, !noundef !17
  %14 = trunc i8 %13 to i1
  %15 = call noundef zeroext i1 @"_ZL13_parse_numberIiZ12hb_parse_intPPKcS1_PibE3$_0EbS2_S1_PT_bT0_"(ptr noundef %10, ptr noundef %11, ptr noundef %12, i1 noundef zeroext %14)
  ret i1 %15
}