; Function Attrs: mustprogress nofree nounwind willreturn uwtable
define hidden noundef zeroext i1 @_Z12hb_parse_intPPKcS0_Pib(ptr noundef captures(none) %0, ptr noundef %1, ptr noundef writeonly captures(none) initializes((0, 4)) %2, i1 noundef zeroext %3) local_unnamed_addr #0 {
  %5 = alloca [32 x i8], align 16
  %6 = alloca ptr, align 8
  call void @llvm.lifetime.start.p0(i64 32, ptr nonnull %5) #8
  %7 = load ptr, ptr %0, align 8, !tbaa !4
  %8 = ptrtoint ptr %1 to i64
  %9 = ptrtoint ptr %7 to i64
  %10 = sub i64 %8, %9
  %11 = trunc i64 %10 to i32
  %.sroa.speculated.i = tail call i32 @llvm.umin.i32(i32 %11, i32 31)
  %12 = zext nneg i32 %.sroa.speculated.i to i64
  %13 = call ptr @strncpy(ptr noundef nonnull %5, ptr noundef %7, i64 noundef %12) #8
  %14 = getelementptr inbounds nuw [32 x i8], ptr %5, i64 0, i64 %12
  store i8 0, ptr %14, align 1, !tbaa !9
  call void @llvm.lifetime.start.p0(i64 8, ptr nonnull %6) #8
  store ptr %5, ptr %6, align 8, !tbaa !4
  %15 = tail call ptr @__errno_location() #9
  store i32 0, ptr %15, align 4, !tbaa !10
  %16 = call noundef i64 @strtol(ptr noundef nonnull %5, ptr noundef nonnull %6, i32 noundef 10) #8
  %17 = trunc i64 %16 to i32
  store i32 %17, ptr %2, align 4, !tbaa !10
  %18 = load i32, ptr %15, align 4, !tbaa !10
  %.not.i = icmp eq i32 %18, 0
  br i1 %.not.i, label %19, label %"_ZL13_parse_numberIiZ12hb_parse_intPPKcS1_PibE3$_0EbS2_S1_PT_bT0_.exit", !prof !12

19:                                               ; preds = %4
  %20 = load ptr, ptr %6, align 8, !tbaa !4
  %21 = icmp ne ptr %5, %20
  %brmerge.not.i = and i1 %3, %21
  br i1 %brmerge.not.i, label %22, label %29, !prof !13

22:                                               ; preds = %19
  %23 = ptrtoint ptr %20 to i64
  %24 = ptrtoint ptr %5 to i64
  %25 = sub i64 %23, %24
  %26 = load ptr, ptr %0, align 8, !tbaa !4
  %27 = ptrtoint ptr %26 to i64
  %28 = sub i64 %8, %27
  %.not22.i = icmp eq i64 %25, %28
  br i1 %.not22.i, label %30, label %"_ZL13_parse_numberIiZ12hb_parse_intPPKcS1_PibE3$_0EbS2_S1_PT_bT0_.exit", !prof !14

29:                                               ; preds = %19
  br i1 %21, label %._crit_edge.i, label %"_ZL13_parse_numberIiZ12hb_parse_intPPKcS1_PibE3$_0EbS2_S1_PT_bT0_.exit", !prof !14

._crit_edge.i:                                    ; preds = %29
  %.pre.i = load ptr, ptr %0, align 8, !tbaa !4
  %.pre23.i = ptrtoint ptr %20 to i64
  %.pre24.i = ptrtoint ptr %5 to i64
  %.pre26.i = sub i64 %.pre23.i, %.pre24.i
  br label %30

30:                                               ; preds = %._crit_edge.i, %22
  %.pre-phi27.i = phi i64 [ %.pre26.i, %._crit_edge.i ], [ %25, %22 ]
  %31 = phi ptr [ %.pre.i, %._crit_edge.i ], [ %26, %22 ]
  %32 = getelementptr inbounds i8, ptr %31, i64 %.pre-phi27.i
  store ptr %32, ptr %0, align 8, !tbaa !4
  br label %"_ZL13_parse_numberIiZ12hb_parse_intPPKcS1_PibE3$_0EbS2_S1_PT_bT0_.exit"

"_ZL13_parse_numberIiZ12hb_parse_intPPKcS1_PibE3$_0EbS2_S1_PT_bT0_.exit": ; preds = %4, %22, %29, %30
  %.0.i = phi i1 [ false, %29 ], [ true, %30 ], [ false, %22 ], [ false, %4 ]
  call void @llvm.lifetime.end.p0(i64 8, ptr nonnull %6) #8
  call void @llvm.lifetime.end.p0(i64 32, ptr nonnull %5) #8
  ret i1 %.0.i
}